target datalayout = "e-m:e-p270:32:32-p271:32:32-p272:64:64-i64:64-i128:128-f80:128-n8:16:32:64-S128"
target triple = "x86_64-pc-linux-gnu"

%struct.strvec = type { ptr, i64, i64 }
%struct.repository = type { ptr, ptr, ptr, ptr, ptr, %struct.strmap, %struct.strmap, %struct.repo_path_cache, ptr, ptr, ptr, ptr, %struct.repo_settings, ptr, ptr, ptr, ptr, ptr, ptr, i32, i32, i32, ptr, ptr, i32, i32, i8 }
%struct.strmap = type { %struct.hashmap, ptr, i8 }
%struct.hashmap = type { ptr, ptr, ptr, i32, i32, i32, i32, i8 }
%struct.repo_path_cache = type { ptr, ptr, ptr, ptr, ptr, ptr, ptr }
%struct.repo_settings = type { i32, i32, i32, i32, i32, i32, i32, i32, i32, i32, i32, i32, ptr, i32, i32, i32, i32, i32, i32, i32, i64, i64, i64 }
%struct.index_state = type { ptr, i32, i32, i32, i32, ptr, ptr, ptr, %struct.cache_time, i8, i32, %struct.hashmap, %struct.hashmap, %struct.object_id, ptr, ptr, ptr, ptr, ptr, ptr, ptr }
%struct.cache_time = type { i32, i32 }
%struct.object_id = type { [32 x i8], i32 }
%struct.cache_entry = type { %struct.hashmap_entry, %struct.stat_data, i32, i32, i32, i32, i32, %struct.object_id, [0 x i8] }
%struct.hashmap_entry = type { ptr, i32 }
%struct.stat_data = type { %struct.cache_time, %struct.cache_time, i32, i32, i32, i32, i32 }
%struct.child_process = type { %struct.strvec, %struct.strvec, i32, i32, i64, ptr, ptr, i32, i32, i32, ptr, i16, ptr }

@the_repository = external global ptr, align 8
@one_shot = internal global i32 0, align 4
@quiet = internal global i32 0, align 4
@pgm = internal global ptr null, align 8
@err = internal global i32 0, align 4
@.str.5 = private unnamed_addr constant [21 x i8] c"merge program failed\00", align 1
@.str.6 = private unnamed_addr constant [1 x i8] zeroinitializer, align 1
@.str.7 = private unnamed_addr constant [37 x i8] c"git merge-index: %s not in the cache\00", align 1
@.str.8 = private unnamed_addr constant [3 x i8] c"%o\00", align 1
@.str.9 = private unnamed_addr constant [22 x i8] c"builtin/merge-index.c\00", align 1

; Function Attrs: nounwind uwtable
define internal i32 @merge_entry(i32 noundef %0, ptr noundef %1) #0 {
  %3 = alloca i32, align 4
  %4 = alloca ptr, align 8
  %5 = alloca i32, align 4
  %6 = alloca [9 x ptr], align 16
  %7 = alloca [4 x [65 x i8]], align 16
  %8 = alloca [4 x [60 x i8]], align 16
  %9 = alloca %struct.child_process, align 8
  %10 = alloca ptr, align 8
  %11 = alloca i32, align 4
  %12 = alloca i32, align 4
  store i32 %0, ptr %3, align 4, !tbaa !4
  store ptr %1, ptr %4, align 8, !tbaa !11
  call void @llvm.lifetime.start.p0(i64 4, ptr %5) #8
  call void @llvm.lifetime.start.p0(i64 72, ptr %6) #8
  %13 = load ptr, ptr @pgm, align 8, !tbaa !11
  store ptr %13, ptr %6, align 8, !tbaa !11
  %14 = getelementptr inbounds ptr, ptr %6, i64 1
  store ptr @.str.6, ptr %14, align 8, !tbaa !11
  %15 = getelementptr inbounds ptr, ptr %6, i64 2
  store ptr @.str.6, ptr %15, align 8, !tbaa !11
  %16 = getelementptr inbounds ptr, ptr %6, i64 3
  store ptr @.str.6, ptr %16, align 8, !tbaa !11
  %17 = getelementptr inbounds ptr, ptr %6, i64 4
  %18 = load ptr, ptr %4, align 8, !tbaa !11
  store ptr %18, ptr %17, align 8, !tbaa !11
  %19 = getelementptr inbounds ptr, ptr %6, i64 5
  store ptr @.str.6, ptr %19, align 8, !tbaa !11
  %20 = getelementptr inbounds ptr, ptr %6, i64 6
  store ptr @.str.6, ptr %20, align 8, !tbaa !11
  %21 = getelementptr inbounds ptr, ptr %6, i64 7
  store ptr @.str.6, ptr %21, align 8, !tbaa !11
  %22 = getelementptr inbounds ptr, ptr %6, i64 8
  store ptr null, ptr %22, align 8, !tbaa !11
  call void @llvm.lifetime.start.p0(i64 260, ptr %7) #8
  call void @llvm.lifetime.start.p0(i64 240, ptr %8) #8
  call void @llvm.lifetime.start.p0(i64 120, ptr %9) #8
  call void @llvm.memcpy.p0.p0.i64(ptr align 8 %9, ptr align 8 @__const.merge_entry.cmd, i64 120, i1 false)
  %23 = load i32, ptr %3, align 4, !tbaa !4
  %24 = load ptr, ptr @the_repository, align 8, !tbaa !13
  %25 = getelementptr inbounds nuw %struct.repository, ptr %24, i32 0, i32 15
  %26 = load ptr, ptr %25, align 8, !tbaa !15
  %27 = getelementptr inbounds nuw %struct.index_state, ptr %26, i32 0, i32 2
  %28 = load i32, ptr %27, align 4, !tbaa !37
  %29 = icmp uge i32 %23, %28
  br i1 %29, label %30, label %32

30:                                               ; preds = %2
  %31 = load ptr, ptr %4, align 8, !tbaa !11
  call void (ptr, ...) @die(ptr noundef @.str.7, ptr noundef %31) #9
  unreachable

32:                                               ; preds = %2
  store i32 0, ptr %5, align 4, !tbaa !4
  br label %33

33:                                               ; preds = %91, %32
  call void @llvm.lifetime.start.p0(i64 8, ptr %10) #8
  %34 = load ptr, ptr @the_repository, align 8, !tbaa !13
  %35 = getelementptr inbounds nuw %struct.repository, ptr %34, i32 0, i32 15
  %36 = load ptr, ptr %35, align 8, !tbaa !15
  %37 = getelementptr inbounds nuw %struct.index_state, ptr %36, i32 0, i32 0
  %38 = load ptr, ptr %37, align 8, !tbaa !49
  %39 = load i32, ptr %3, align 4, !tbaa !4
  %40 = sext i32 %39 to i64
  %41 = getelementptr inbounds ptr, ptr %38, i64 %40
  %42 = load ptr, ptr %41, align 8, !tbaa !50
  store ptr %42, ptr %10, align 8, !tbaa !50
  call void @llvm.lifetime.start.p0(i64 4, ptr %11) #8
  %43 = load ptr, ptr %10, align 8, !tbaa !50
  %44 = getelementptr inbounds nuw %struct.cache_entry, ptr %43, i32 0, i32 3
  %45 = load i32, ptr %44, align 8, !tbaa !4
  %46 = and i32 12288, %45
  %47 = lshr i32 %46, 12
  store i32 %47, ptr %11, align 4, !tbaa !4
  %48 = load ptr, ptr %10, align 8, !tbaa !50
  %49 = getelementptr inbounds nuw %struct.cache_entry, ptr %48, i32 0, i32 8
  %50 = getelementptr inbounds [0 x i8], ptr %49, i64 0, i64 0
  %51 = load ptr, ptr %4, align 8, !tbaa !11
  %52 = call i32 @strcmp(ptr noundef %50, ptr noundef %51) #10
  %53 = icmp ne i32 %52, 0
  br i1 %53, label %54, label %55

54:                                               ; preds = %33
  store i32 2, ptr %12, align 4
  br label %88

55:                                               ; preds = %33
  %56 = load i32, ptr %5, align 4, !tbaa !4
  %57 = add nsw i32 %56, 1
  store i32 %57, ptr %5, align 4, !tbaa !4
  %58 = load i32, ptr %11, align 4, !tbaa !4
  %59 = sext i32 %58 to i64
  %60 = getelementptr inbounds [4 x [65 x i8]], ptr %7, i64 0, i64 %59
  %61 = getelementptr inbounds [65 x i8], ptr %60, i64 0, i64 0
  %62 = load ptr, ptr %10, align 8, !tbaa !50
  %63 = getelementptr inbounds nuw %struct.cache_entry, ptr %62, i32 0, i32 7
  %64 = call ptr @oid_to_hex_r(ptr noundef %61, ptr noundef %63)
  %65 = load i32, ptr %11, align 4, !tbaa !4
  %66 = sext i32 %65 to i64
  %67 = getelementptr inbounds [4 x [60 x i8]], ptr %8, i64 0, i64 %66
  %68 = getelementptr inbounds [60 x i8], ptr %67, i64 0, i64 0
  %69 = load ptr, ptr %10, align 8, !tbaa !50
  %70 = getelementptr inbounds nuw %struct.cache_entry, ptr %69, i32 0, i32 2
  %71 = load i32, ptr %70, align 4, !tbaa !4
  %72 = call i32 (ptr, i64, ptr, ...) @xsnprintf(ptr noundef %68, i64 noundef 60, ptr noundef @.str.8, i32 noundef %71)
  %73 = load i32, ptr %11, align 4, !tbaa !4
  %74 = sext i32 %73 to i64
  %75 = getelementptr inbounds [4 x [65 x i8]], ptr %7, i64 0, i64 %74
  %76 = getelementptr inbounds [65 x i8], ptr %75, i64 0, i64 0
  %77 = load i32, ptr %11, align 4, !tbaa !4
  %78 = sext i32 %77 to i64
  %79 = getelementptr inbounds [9 x ptr], ptr %6, i64 0, i64 %78
  store ptr %76, ptr %79, align 8, !tbaa !11
  %80 = load i32, ptr %11, align 4, !tbaa !4
  %81 = sext i32 %80 to i64
  %82 = getelementptr inbounds [4 x [60 x i8]], ptr %8, i64 0, i64 %81
  %83 = getelementptr inbounds [60 x i8], ptr %82, i64 0, i64 0
  %84 = load i32, ptr %11, align 4, !tbaa !4
  %85 = add nsw i32 %84, 4
  %86 = sext i32 %85 to i64
  %87 = getelementptr inbounds [9 x ptr], ptr %6, i64 0, i64 %86
  store ptr %83, ptr %87, align 8, !tbaa !11
  store i32 0, ptr %12, align 4
  br label %88

88:                                               ; preds = %55, %54
  call void @llvm.lifetime.end.p0(i64 4, ptr %11) #8
  call void @llvm.lifetime.end.p0(i64 8, ptr %10) #8
  %89 = load i32, ptr %12, align 4
  switch i32 %89, label %125 [
    i32 0, label %90
    i32 2, label %100
  ]

90:                                               ; preds = %88
  br label %91

91:                                               ; preds = %90
  %92 = load i32, ptr %3, align 4, !tbaa !4
  %93 = add nsw i32 %92, 1
  store i32 %93, ptr %3, align 4, !tbaa !4
  %94 = load ptr, ptr @the_repository, align 8, !tbaa !13
  %95 = getelementptr inbounds nuw %struct.repository, ptr %94, i32 0, i32 15
  %96 = load ptr, ptr %95, align 8, !tbaa !15
  %97 = getelementptr inbounds nuw %struct.index_state, ptr %96, i32 0, i32 2
  %98 = load i32, ptr %97, align 4, !tbaa !37
  %99 = icmp ult i32 %93, %98
  br i1 %99, label %33, label %100, !llvm.loop !53

100:                                              ; preds = %91, %88
  %101 = load i32, ptr %5, align 4, !tbaa !4
  %102 = icmp ne i32 %101, 0
  br i1 %102, label %105, label %103

103:                                              ; preds = %100
  %104 = load ptr, ptr %4, align 8, !tbaa !11
  call void (ptr, ...) @die(ptr noundef @.str.7, ptr noundef %104) #9
  unreachable

105:                                              ; preds = %100
  %106 = getelementptr inbounds nuw %struct.child_process, ptr %9, i32 0, i32 0
  %107 = getelementptr inbounds [9 x ptr], ptr %6, i64 0, i64 0
  call void @strvec_pushv(ptr noundef %106, ptr noundef %107)
  %108 = call i32 @run_command(ptr noundef %9)
  %109 = icmp ne i32 %108, 0
  br i1 %109, label %110, label %123

110:                                              ; preds = %105
  %111 = load i32, ptr @one_shot, align 4, !tbaa !4
  %112 = icmp ne i32 %111, 0
  br i1 %112, label %113, label %116

113:                                              ; preds = %110
  %114 = load i32, ptr @err, align 4, !tbaa !4
  %115 = add nsw i32 %114, 1
  store i32 %115, ptr @err, align 4, !tbaa !4
  br label %122

116:                                              ; preds = %110
  %117 = load i32, ptr @quiet, align 4, !tbaa !4
  %118 = icmp ne i32 %117, 0
  br i1 %118, label %120, label %119

119:                                              ; preds = %116
  call void (ptr, ...) @die(ptr noundef @.str.5) #9
  unreachable

120:                                              ; preds = %116
  %121 = call i32 @common_exit(ptr noundef @.str.9, i32 noundef 47, i32 noundef 1)
  call void @exit(i32 noundef %121) #11
  unreachable

122:                                              ; preds = %113
  br label %123

123:                                              ; preds = %122, %105
  %124 = load i32, ptr %5, align 4, !tbaa !4
  store i32 1, ptr %12, align 4
  call void @llvm.lifetime.end.p0(i64 120, ptr %9) #8
  call void @llvm.lifetime.end.p0(i64 240, ptr %8) #8
  call void @llvm.lifetime.end.p0(i64 260, ptr %7) #8
  call void @llvm.lifetime.end.p0(i64 72, ptr %6) #8
  call void @llvm.lifetime.end.p0(i64 4, ptr %5) #8
  ret i32 %124

125:                                              ; preds = %88
  unreachable
}